target datalayout = "e-m:e-p270:32:32-p271:32:32-p272:64:64-i64:64-i128:128-f80:128-n8:16:32:64-S128"
target triple = "x86_64-pc-linux-gnu"

%struct.DdManager = type { %struct.DdNode, ptr, ptr, ptr, ptr, ptr, ptr, ptr, i32, i32, double, double, double, i32, i32, i32, i32, i32, i32, ptr, ptr, %struct.DdSubtable, i32, i32, i32, i32, i32, i32, i32, double, i32, i32, i32, ptr, i64, double, i32, ptr, ptr, ptr, ptr, ptr, ptr, ptr, i32, ptr, ptr, ptr, ptr, ptr, ptr, i32, i32, i32, double, i32, i32, i32, i32, double, double, i32, i32, i32, i32, i32, i32, i32, i32, i32, ptr, ptr, i32, i32, i32, i32, i32, i32, ptr, ptr, ptr, ptr, ptr, ptr, ptr, ptr, i32, i64, i64, i64, i32, i64, i64, double, double, double, double, double, double, i32, ptr, ptr, i64 }
%struct.DdNode = type { i32, i32, ptr, %union.anon, i64 }
%union.anon = type { %struct.DdChildren }
%struct.DdChildren = type { ptr, ptr }
%struct.DdSubtable = type { ptr, i32, i32, i32, i32, i32, i32, i32, i32, i32, i32, i32 }

@memOut = internal global i32 0, align 4

; Function Attrs: nounwind uwtable
define ptr @Cudd_SubsetShortPaths(ptr noundef %0, ptr noundef %1, i32 noundef %2, i32 noundef %3, i32 noundef %4) #0 {
  %6 = alloca ptr, align 8
  %7 = alloca ptr, align 8
  %8 = alloca i32, align 4
  %9 = alloca i32, align 4
  %10 = alloca i32, align 4
  %11 = alloca ptr, align 8
  store ptr %0, ptr %6, align 8, !tbaa !3
  store ptr %1, ptr %7, align 8, !tbaa !8
  store i32 %2, ptr %8, align 4, !tbaa !10
  store i32 %3, ptr %9, align 4, !tbaa !10
  store i32 %4, ptr %10, align 4, !tbaa !10
  call void @llvm.lifetime.start.p0(i64 8, ptr %11) #5
  store i32 0, ptr @memOut, align 4, !tbaa !10
  br label %12

12:                                               ; preds = %30, %5
  %13 = load ptr, ptr %6, align 8, !tbaa !3
  %14 = getelementptr inbounds nuw %struct.DdManager, ptr %13, i32 0, i32 55
  store i32 0, ptr %14, align 8, !tbaa !12
  %15 = load ptr, ptr %6, align 8, !tbaa !3
  %16 = load ptr, ptr %7, align 8, !tbaa !8
  %17 = load i32, ptr %8, align 4, !tbaa !10
  %18 = load i32, ptr %9, align 4, !tbaa !10
  %19 = load i32, ptr %10, align 4, !tbaa !10
  %20 = call ptr @cuddSubsetShortPaths(ptr noundef %15, ptr noundef %16, i32 noundef %17, i32 noundef %18, i32 noundef %19)
  store ptr %20, ptr %11, align 8, !tbaa !8
  br label %21

21:                                               ; preds = %12
  %22 = load ptr, ptr %6, align 8, !tbaa !3
  %23 = getelementptr inbounds nuw %struct.DdManager, ptr %22, i32 0, i32 55
  %24 = load i32, ptr %23, align 8, !tbaa !12
  %25 = icmp eq i32 %24, 1
  br i1 %25, label %26, label %30

26:                                               ; preds = %21
  %27 = load i32, ptr @memOut, align 4, !tbaa !10
  %28 = icmp ne i32 %27, 0
  %29 = xor i1 %28, true
  br label %30

30:                                               ; preds = %26, %21
  %31 = phi i1 [ false, %21 ], [ %29, %26 ]
  br i1 %31, label %12, label %32, !llvm.loop !28

32:                                               ; preds = %30
  %33 = load ptr, ptr %11, align 8, !tbaa !8
  call void @llvm.lifetime.end.p0(i64 8, ptr %11) #5
  ret ptr %33
}