; Function Attrs: nounwind uwtable
define ptr @Cudd_SubsetShortPaths(ptr noundef initializes((448, 452)) %0, ptr noundef %1, i32 noundef %2, i32 noundef %3, i32 noundef %4) local_unnamed_addr #0 {
  store i1 false, ptr @memOut, align 4
  %6 = getelementptr inbounds nuw i8, ptr %0, i64 448
  br label %7

7:                                                ; preds = %7, %5
  store i32 0, ptr %6, align 8, !tbaa !3
  %8 = tail call ptr @cuddSubsetShortPaths(ptr noundef %0, ptr noundef %1, i32 noundef %2, i32 noundef %3, i32 noundef %4)
  %9 = load i32, ptr %6, align 8, !tbaa !3
  %10 = icmp ne i32 %9, 1
  %.b = load i1, ptr @memOut, align 4
  %.not7 = select i1 %10, i1 true, i1 %.b
  br i1 %.not7, label %11, label %7, !llvm.loop !24

11:                                               ; preds = %7
  ret ptr %8
}